Certificate:
    Data:
        Version: 3 (0x2)
        Serial Number: 2 (0x2)
    Signature Algorithm: sha256WithRSAEncryption
        Issuer: CN=local
        Validity
            Not Before: Jan  5 01:30:37 2017 GMT
            Not After : Jan  3 01:30:37 2027 GMT
        Subject: CN=localvpn
        Subject Public Key Info:
            Public Key Algorithm: rsaEncryption
                Public-Key: (2048 bit)
                Modulus:
                    00:d7:83:b4:dc:4a:61:d5:23:d9:89:e0:ef:81:7f:
                    92:94:a1:bc:85:34:89:52:a1:78:31:f4:fe:f1:05:
                    c9:f7:5a:f7:bf:ea:19:a1:97:3a:2e:2e:43:35:e4:
                    8b:b7:08:ee:f0:78:96:de:e2:f6:ff:fc:66:41:8a:
                    93:09:2e:5c:06:6b:22:be:b3:74:f0:d4:73:e1:86:
                    8f:0d:af:9d:5e:56:8f:4a:4d:67:fb:5a:81:a6:c9:
                    e4:f0:33:af:85:42:4d:9b:c4:2a:b7:48:1e:e9:e2:
                    95:d8:47:79:4b:a5:32:1a:3c:e4:d6:ea:c9:81:ad:
                    9a:df:d3:88:6d:50:ab:19:81:bc:5e:e9:1b:a9:4b:
                    65:dd:17:5f:4a:71:1a:17:14:9c:1b:80:e7:e9:64:
                    d1:16:7f:b7:3a:07:4f:9f:4d:ad:e5:92:63:8c:db:
                    10:7c:99:01:75:77:d7:ff:0e:46:c3:45:b3:84:21:
                    2c:f6:e6:11:ee:e9:59:7e:b6:c8:2b:34:de:a3:ac:
                    1e:a0:ec:b6:72:dc:92:e0:14:04:ff:e9:cf:94:f9:
                    36:64:ea:8d:c6:63:d2:b2:1a:55:3c:7f:c8:91:49:
                    e3:42:78:42:eb:8d:f4:ed:bf:0e:6e:ee:ce:16:c8:
                    97:ed:bf:a6:20:28:1e:2f:94:17:cf:5b:50:7a:65:
                    9b:17
                Exponent: 65537 (0x10001)
        X509v3 extensions:
            X509v3 Basic Constraints: 
                CA:FALSE
            X509v3 Subject Key Identifier: 
                A2:6D:A6:F2:68:A7:66:58:A5:F2:CB:3D:91:D4:3B:82:B7:A3:01:AA
            X509v3 Authority Key Identifier: 
                keyid:53:C3:4E:0B:E3:BD:C3:CA:01:20:34:BA:04:4B:D3:83:16:45:17:7B
                DirName:/CN=local
                serial:EA:CC:C1:6A:2A:C1:1E:2A

            X509v3 Extended Key Usage: 
                TLS Web Client Authentication
            X509v3 Key Usage: 
                Digital Signature
    Signature Algorithm: sha256WithRSAEncryption
         51:88:8f:5b:30:36:a9:42:ab:ff:30:f8:09:ab:ef:05:cf:67:
         49:a3:71:51:c9:13:de:d0:73:ec:cf:da:02:54:4e:74:88:19:
         de:63:10:ce:6a:d4:52:c8:42:be:32:04:88:88:3a:ad:cb:91:
         63:2e:82:63:21:7c:a0:e4:f1:25:b6:ce:a4:48:95:ef:30:32:
         3a:9e:0f:5c:f1:6c:06:bc:75:81:d8:76:f8:21:77:ce:67:13:
         3a:1f:79:81:50:68:2a:2b:71:97:69:eb:36:07:17:1b:c4:c9:
         91:89:7e:a0:7d:6e:d5:9f:59:a7:e1:3f:fb:aa:df:63:55:41:
         fc:be:f6:8b:a1:5a:c7:f4:75:8f:b9:b4:eb:cd:e0:9b:0b:81:
         77:92:21:d4:31:cf:74:ce:dd:64:cf:10:7d:3a:5a:2b:17:19:
         ac:97:9a:b1:4d:d6:21:cf:0f:34:f9:7d:ec:33:fb:97:2c:b9:
         b1:fe:1c:6a:f6:5b:42:68:4c:e7:d0:7d:ed:9c:c5:7e:7d:7c:
         9c:6e:65:e9:9e:3d:aa:9a:c6:06:ed:b8:4b:4f:20:ef:59:e4:
         ad:96:e8:03:c1:38:18:16:b7:51:84:e5:06:2b:13:70:6d:9b:
         5c:41:26:52:2c:52:fa:6f:80:90:86:9d:31:21:f4:e8:a7:95:
         00:aa:9a:89
-----BEGIN CERTIFICATE-----
MIIDMDCCAhigAwIBAgIBAjANBgkqhkiG9w0BAQsFADAQMQ4wDAYDVQQDDAVsb2Nh
bDAeFw0xNzAxMDUwMTMwMzdaFw0yNzAxMDMwMTMwMzdaMBMxETAPBgNVBAMMCGxv
Y2FsdnBuMIIBIjANBgkqhkiG9w0BAQEFAAOCAQ8AMIIBCgKCAQEA14O03Eph1SPZ
ieDvgX+SlKG8hTSJUqF4MfT+8QXJ91r3v+oZoZc6Li5DNeSLtwju8HiW3uL2//xm
QYqTCS5cBmsivrN08NRz4YaPDa+dXlaPSk1n+1qBpsnk8DOvhUJNm8Qqt0ge6eKV
2Ed5S6UyGjzk1urJga2a39OIbVCrGYG8XukbqUtl3RdfSnEaFxScG4Dn6WTRFn+3
OgdPn02t5ZJjjNsQfJkBdXfX/w5Gw0WzhCEs9uYR7ulZfrbIKzTeo6weoOy2ctyS
4BQE/+nPlPk2ZOqNxmPSshpVPH/IkUnjQnhC64307b8Obu7OFsiX7b+mICgeL5QX
z1tQemWbFwIDAQABo4GRMIGOMAkGA1UdEwQCMAAwHQYDVR0OBBYEFKJtpvJop2ZY
pfLLPZHUO4K3owGqMEAGA1UdIwQ5MDeAFFPDTgvjvcPKASA0ugRL04MWRRd7oRSk
EjAQMQ4wDAYDVQQDDAVsb2NhbIIJAOrMwWoqwR4qMBMGA1UdJQQMMAoGCCsGAQUF
BwMCMAsGA1UdDwQEAwIHgDANBgkqhkiG9w0BAQsFAAOCAQEAUYiPWzA2qUKr/zD4
CavvBc9nSaNxUckT3tBz7M/aAlROdIgZ3mMQzmrUUshCvjIEiIg6rcuRYy6CYyF8
oOTxJbbOpEiV7zAyOp4PXPFsBrx1gdh2+CF3zmcTOh95gVBoKitxl2nrNgcXG8TJ
kYl+oH1u1Z9Zp+E/+6rfY1VB/L72i6Fax/R1j7m0683gmwuBd5Ih1DHPdM7dZM8Q
fTpaKxcZrJeasU3WIc8PNPl97DP7lyy5sf4cavZbQmhM59B97ZzFfn18nG5l6Z49
qprGBu24S08g71nkrZboA8E4GBa3UYTlBisTcG2bXEEmUixS+m+AkIadMSH06KeV
AKqaiQ==
-----END CERTIFICATE-----
